target datalayout = "e-m:e-p270:32:32-p271:32:32-p272:64:64-i64:64-i128:128-f80:128-n8:16:32:64-S128"
target triple = "x86_64-pc-linux-gnu"

%class.cmCTestVC = type <{ ptr, ptr, ptr, %"class.std::__cxx11::basic_string", %"class.std::__cxx11::basic_string", %"class.std::__cxx11::basic_string", %"struct.cmCTestVC::Revision", [3 x i32], [4 x i8] }>
%"class.std::__cxx11::basic_string" = type { %"struct.std::__cxx11::basic_string<char>::_Alloc_hider", i64, %union.anon }
%"struct.std::__cxx11::basic_string<char>::_Alloc_hider" = type { ptr }
%union.anon = type { i64, [8 x i8] }
%"struct.cmCTestVC::Revision" = type { %"class.std::__cxx11::basic_string", %"class.std::__cxx11::basic_string", %"class.std::__cxx11::basic_string", %"class.std::__cxx11::basic_string", %"class.std::__cxx11::basic_string", %"class.std::__cxx11::basic_string", %"class.std::__cxx11::basic_string", %"class.std::__cxx11::basic_string" }

@.str.16 = private unnamed_addr constant [23 x i8] c"--- Begin Cleanup ---\0A\00", align 1
@.str.17 = private unnamed_addr constant [21 x i8] c"--- End Cleanup ---\0A\00", align 1

; Function Attrs: mustprogress uwtable
define dso_local void @_ZN9cmCTestVC7CleanupEv(ptr noundef nonnull align 8 dereferenceable(388) %0) #4 align 2 {
  %2 = alloca ptr, align 8
  store ptr %0, ptr %2, align 8
  %3 = load ptr, ptr %2, align 8
  %4 = getelementptr inbounds %class.cmCTestVC, ptr %3, i32 0, i32 2
  %5 = load ptr, ptr %4, align 8
  %6 = call noundef nonnull align 8 dereferenceable(8) ptr @_ZStlsISt11char_traitsIcEERSt13basic_ostreamIcT_ES5_PKc(ptr noundef nonnull align 8 dereferenceable(8) %5, ptr noundef @.str.16)
  %7 = load ptr, ptr %3, align 8
  %8 = getelementptr inbounds ptr, ptr %7, i64 2
  %9 = load ptr, ptr %8, align 8
  call void %9(ptr noundef nonnull align 8 dereferenceable(388) %3)
  %10 = getelementptr inbounds %class.cmCTestVC, ptr %3, i32 0, i32 2
  %11 = load ptr, ptr %10, align 8
  %12 = call noundef nonnull align 8 dereferenceable(8) ptr @_ZStlsISt11char_traitsIcEERSt13basic_ostreamIcT_ES5_PKc(ptr noundef nonnull align 8 dereferenceable(8) %11, ptr noundef @.str.17)
  ret void
}